target datalayout = "e-m:e-p270:32:32-p271:32:32-p272:64:64-i64:64-i128:128-f80:128-n8:16:32:64-S128"
target triple = "x86_64-pc-linux-gnu"

%struct.SDL_Renderer = type { ptr, ptr, ptr, ptr, ptr, ptr, ptr, ptr, ptr, ptr, ptr, ptr, ptr, ptr, ptr, ptr, ptr, ptr, ptr, ptr, ptr, ptr, ptr, ptr, ptr, ptr, ptr, ptr, ptr, ptr, i32, i8, ptr, i8, i8, i8, i64, i64, ptr, %struct.SDL_RenderViewState, %struct.SDL_FPoint, i32, i32, ptr, ptr, ptr, i32, float, float, float, float, %struct.SDL_FColor, i32, i32, i32, ptr, ptr, ptr, ptr, i32, %struct.SDL_FColor, float, %struct.SDL_Rect, %struct.SDL_Rect, i8, i8, i8, i8, ptr, i64, i64, i8, ptr, ptr, i32, ptr, i8, ptr, ptr }
%struct.SDL_RenderViewState = type { i32, i32, %struct.SDL_Rect, %struct.SDL_Rect, %struct.SDL_Rect, %struct.SDL_Rect, i8, %struct.SDL_FPoint, i32, i32, i32, %struct.SDL_FRect, %struct.SDL_FRect, %struct.SDL_FPoint, %struct.SDL_FPoint, %struct.SDL_FPoint }
%struct.SDL_FRect = type { float, float, float, float }
%struct.SDL_FPoint = type { float, float }
%struct.SDL_FColor = type { float, float, float, float }
%struct.SDL_Rect = type { i32, i32, i32, i32 }
%struct.GL_RenderData = type { ptr, i8, i8, i32, ptr, ptr, ptr, i32, i8, i8, i8, ptr, ptr, ptr, ptr, ptr, ptr, ptr, ptr, ptr, ptr, ptr, ptr, ptr, ptr, ptr, ptr, ptr, ptr, ptr, ptr, ptr, ptr, ptr, ptr, ptr, ptr, ptr, ptr, ptr, ptr, ptr, ptr, ptr, ptr, ptr, ptr, ptr, ptr, ptr, ptr, ptr, ptr, ptr, ptr, ptr, ptr, ptr, ptr, ptr, i8, ptr, i32, ptr, ptr, ptr, ptr, ptr, ptr, %struct.GL_DrawStateCache }
%struct.GL_DrawStateCache = type { i8, %struct.SDL_Rect, ptr, ptr, i32, i32, i32, i32, [4 x float], ptr, i8, i8, i8, %struct.SDL_Rect, i8, i8, i8, i8, i8, i8, %struct.SDL_FColor, i8, %struct.SDL_FColor }

; Function Attrs: nounwind uwtable
define internal void @GL_ClearErrors(ptr noundef %0) #0 {
  %2 = alloca ptr, align 8
  %3 = alloca ptr, align 8
  %4 = alloca i32, align 4
  %5 = alloca i32, align 4
  store ptr %0, ptr %2, align 8
  call void @llvm.lifetime.start.p0(i64 8, ptr %3) #4
  %6 = load ptr, ptr %2, align 8
  %7 = getelementptr inbounds nuw %struct.SDL_Renderer, ptr %6, i32 0, i32 77
  %8 = load ptr, ptr %7, align 8
  store ptr %8, ptr %3, align 8
  %9 = load ptr, ptr %3, align 8
  %10 = getelementptr inbounds nuw %struct.GL_RenderData, ptr %9, i32 0, i32 1
  %11 = load i8, ptr %10, align 8, !range !3, !noundef !4
  %12 = trunc i8 %11 to i1
  br i1 %12, label %14, label %13

13:                                               ; preds = %1
  store i32 1, ptr %4, align 4
  br label %67

14:                                               ; preds = %1
  %15 = load ptr, ptr %3, align 8
  %16 = getelementptr inbounds nuw %struct.GL_RenderData, ptr %15, i32 0, i32 2
  %17 = load i8, ptr %16, align 1, !range !3, !noundef !4
  %18 = trunc i8 %17 to i1
  br i1 %18, label %19, label %51

19:                                               ; preds = %14
  %20 = load ptr, ptr %3, align 8
  %21 = getelementptr inbounds nuw %struct.GL_RenderData, ptr %20, i32 0, i32 3
  %22 = load i32, ptr %21, align 4
  %23 = icmp ne i32 %22, 0
  br i1 %23, label %24, label %50

24:                                               ; preds = %19
  call void @llvm.lifetime.start.p0(i64 4, ptr %5) #4
  store i32 0, ptr %5, align 4
  br label %25

25:                                               ; preds = %39, %24
  %26 = load i32, ptr %5, align 4
  %27 = load ptr, ptr %3, align 8
  %28 = getelementptr inbounds nuw %struct.GL_RenderData, ptr %27, i32 0, i32 3
  %29 = load i32, ptr %28, align 4
  %30 = icmp slt i32 %26, %29
  br i1 %30, label %31, label %42

31:                                               ; preds = %25
  %32 = load ptr, ptr %3, align 8
  %33 = getelementptr inbounds nuw %struct.GL_RenderData, ptr %32, i32 0, i32 4
  %34 = load ptr, ptr %33, align 8
  %35 = load i32, ptr %5, align 4
  %36 = sext i32 %35 to i64
  %37 = getelementptr inbounds ptr, ptr %34, i64 %36
  %38 = load ptr, ptr %37, align 8
  call void @SDL_free_REAL(ptr noundef %38)
  br label %39

39:                                               ; preds = %31
  %40 = load i32, ptr %5, align 4
  %41 = add nsw i32 %40, 1
  store i32 %41, ptr %5, align 4
  br label %25, !llvm.loop !16

42:                                               ; preds = %25
  %43 = load ptr, ptr %3, align 8
  %44 = getelementptr inbounds nuw %struct.GL_RenderData, ptr %43, i32 0, i32 4
  %45 = load ptr, ptr %44, align 8
  call void @SDL_free_REAL(ptr noundef %45)
  %46 = load ptr, ptr %3, align 8
  %47 = getelementptr inbounds nuw %struct.GL_RenderData, ptr %46, i32 0, i32 3
  store i32 0, ptr %47, align 4
  %48 = load ptr, ptr %3, align 8
  %49 = getelementptr inbounds nuw %struct.GL_RenderData, ptr %48, i32 0, i32 4
  store ptr null, ptr %49, align 8
  call void @llvm.lifetime.end.p0(i64 4, ptr %5) #4
  br label %50

50:                                               ; preds = %42, %19
  br label %66

51:                                               ; preds = %14
  %52 = load ptr, ptr %3, align 8
  %53 = getelementptr inbounds nuw %struct.GL_RenderData, ptr %52, i32 0, i32 32
  %54 = load ptr, ptr %53, align 8
  %55 = icmp ne ptr %54, null
  br i1 %55, label %56, label %65

56:                                               ; preds = %51
  br label %57

57:                                               ; preds = %63, %56
  %58 = load ptr, ptr %3, align 8
  %59 = getelementptr inbounds nuw %struct.GL_RenderData, ptr %58, i32 0, i32 32
  %60 = load ptr, ptr %59, align 8
  %61 = call i32 %60()
  %62 = icmp ne i32 %61, 0
  br i1 %62, label %63, label %64

63:                                               ; preds = %57
  br label %57, !llvm.loop !17

64:                                               ; preds = %57
  br label %65

65:                                               ; preds = %64, %51
  br label %66

66:                                               ; preds = %65, %50
  store i32 0, ptr %4, align 4
  br label %67

67:                                               ; preds = %66, %13
  call void @llvm.lifetime.end.p0(i64 8, ptr %3) #4
  %68 = load i32, ptr %4, align 4
  switch i32 %68, label %70 [
    i32 0, label %69
    i32 1, label %69
  ]

69:                                               ; preds = %67, %67
  ret void

70:                                               ; preds = %67
  unreachable
}

; Function Attrs: nounwind uwtable
define internal zeroext i1 @GL_ActivateRenderer(ptr noundef %0) #0 {
  %2 = alloca i1, align 1
  %3 = alloca ptr, align 8
  %4 = alloca ptr, align 8
  %5 = alloca i32, align 4
  store ptr %0, ptr %3, align 8
  call void @llvm.lifetime.start.p0(i64 8, ptr %4) #4
  %6 = load ptr, ptr %3, align 8
  %7 = getelementptr inbounds nuw %struct.SDL_Renderer, ptr %6, i32 0, i32 77
  %8 = load ptr, ptr %7, align 8
  store ptr %8, ptr %4, align 8
  %9 = call ptr @SDL_GL_GetCurrentContext_REAL()
  %10 = load ptr, ptr %4, align 8
  %11 = getelementptr inbounds nuw %struct.GL_RenderData, ptr %10, i32 0, i32 0
  %12 = load ptr, ptr %11, align 8
  %13 = icmp ne ptr %9, %12
  br i1 %13, label %14, label %24

14:                                               ; preds = %1
  %15 = load ptr, ptr %3, align 8
  %16 = getelementptr inbounds nuw %struct.SDL_Renderer, ptr %15, i32 0, i32 32
  %17 = load ptr, ptr %16, align 8
  %18 = load ptr, ptr %4, align 8
  %19 = getelementptr inbounds nuw %struct.GL_RenderData, ptr %18, i32 0, i32 0
  %20 = load ptr, ptr %19, align 8
  %21 = call zeroext i1 @SDL_GL_MakeCurrent_REAL(ptr noundef %17, ptr noundef %20)
  br i1 %21, label %23, label %22

22:                                               ; preds = %14
  store i1 false, ptr %2, align 1
  store i32 1, ptr %5, align 4
  br label %26

23:                                               ; preds = %14
  br label %24

24:                                               ; preds = %23, %1
  %25 = load ptr, ptr %3, align 8
  call void @GL_ClearErrors(ptr noundef %25)
  store i1 true, ptr %2, align 1
  store i32 1, ptr %5, align 4
  br label %26

26:                                               ; preds = %24, %22
  call void @llvm.lifetime.end.p0(i64 8, ptr %4) #4
  %27 = load i1, ptr %2, align 1
  ret i1 %27
}