; Function Attrs: nounwind uwtable
define internal fastcc noundef zeroext i1 @GL_ActivateRenderer(ptr noundef readonly captures(none) %0) unnamed_addr #0 {
  %2 = getelementptr inbounds nuw i8, ptr %0, i64 696
  %3 = load ptr, ptr %2, align 8
  %4 = tail call ptr @SDL_GL_GetCurrentContext_REAL() #7
  %5 = load ptr, ptr %3, align 8
  %.not = icmp eq ptr %4, %5
  br i1 %.not, label %10, label %6

6:                                                ; preds = %1
  %7 = getelementptr inbounds nuw i8, ptr %0, i64 248
  %8 = load ptr, ptr %7, align 8
  %9 = tail call zeroext i1 @SDL_GL_MakeCurrent_REAL(ptr noundef %8, ptr noundef %5) #7
  br i1 %9, label %10, label %GL_ClearErrors.exit

10:                                               ; preds = %6, %1
  %.val = load ptr, ptr %2, align 8
  %11 = getelementptr inbounds nuw i8, ptr %.val, i64 8
  %12 = load i8, ptr %11, align 8, !range !3, !noundef !4
  %13 = trunc nuw i8 %12 to i1
  br i1 %13, label %14, label %GL_ClearErrors.exit

14:                                               ; preds = %10
  %15 = getelementptr inbounds nuw i8, ptr %.val, i64 9
  %16 = load i8, ptr %15, align 1, !range !3, !noundef !4
  %17 = trunc nuw i8 %16 to i1
  br i1 %17, label %18, label %32

18:                                               ; preds = %14
  %19 = getelementptr inbounds nuw i8, ptr %.val, i64 12
  %20 = load i32, ptr %19, align 4
  %.not14.i = icmp eq i32 %20, 0
  br i1 %.not14.i, label %GL_ClearErrors.exit, label %.preheader.i

.preheader.i:                                     ; preds = %18
  %21 = icmp sgt i32 %20, 0
  br i1 %21, label %.lr.ph.i, label %._crit_edge.i

.lr.ph.i:                                         ; preds = %.preheader.i
  %22 = getelementptr inbounds nuw i8, ptr %.val, i64 16
  br label %23

23:                                               ; preds = %23, %.lr.ph.i
  %indvars.iv.i = phi i64 [ 0, %.lr.ph.i ], [ %indvars.iv.next.i, %23 ]
  %24 = load ptr, ptr %22, align 8
  %25 = getelementptr inbounds nuw ptr, ptr %24, i64 %indvars.iv.i
  %26 = load ptr, ptr %25, align 8
  tail call void @SDL_free_REAL(ptr noundef %26) #7
  %indvars.iv.next.i = add nuw nsw i64 %indvars.iv.i, 1
  %27 = load i32, ptr %19, align 4
  %28 = sext i32 %27 to i64
  %29 = icmp slt i64 %indvars.iv.next.i, %28
  br i1 %29, label %23, label %._crit_edge.i, !llvm.loop !11

._crit_edge.i:                                    ; preds = %23, %.preheader.i
  %30 = getelementptr inbounds nuw i8, ptr %.val, i64 16
  %31 = load ptr, ptr %30, align 8
  tail call void @SDL_free_REAL(ptr noundef %31) #7
  store i32 0, ptr %19, align 4
  store ptr null, ptr %30, align 8
  br label %GL_ClearErrors.exit

32:                                               ; preds = %14
  %33 = getelementptr inbounds nuw i8, ptr %.val, i64 216
  %34 = load ptr, ptr %33, align 8
  %.not.i = icmp eq ptr %34, null
  br i1 %.not.i, label %GL_ClearErrors.exit, label %.preheader1.i

.preheader1.i:                                    ; preds = %32, %.preheader1.i
  %35 = load ptr, ptr %33, align 8
  %36 = tail call i32 %35() #7
  %.not13.i = icmp eq i32 %36, 0
  br i1 %.not13.i, label %GL_ClearErrors.exit, label %.preheader1.i, !llvm.loop !12

GL_ClearErrors.exit:                              ; preds = %.preheader1.i, %32, %._crit_edge.i, %18, %10, %6
  %.0 = phi i1 [ false, %6 ], [ true, %10 ], [ true, %18 ], [ true, %._crit_edge.i ], [ true, %32 ], [ true, %.preheader1.i ]
  ret i1 %.0
}